target datalayout = "e-m:e-p270:32:32-p271:32:32-p272:64:64-i64:64-i128:128-f80:128-n8:16:32:64-S128"
target triple = "x86_64-pc-linux-gnu"

%struct.jpeg_decompress_struct = type { ptr, ptr, ptr, ptr, i32, i32, ptr, i32, i32, i32, i32, i32, i32, i32, double, i32, i32, i32, i32, i32, i32, i32, i32, i32, i32, i32, i32, i32, i32, i32, i32, i32, i32, ptr, i32, i32, i32, i32, i32, ptr, [4 x ptr], [4 x ptr], [4 x ptr], i32, ptr, i32, i32, [16 x i8], [16 x i8], [16 x i8], i32, i32, i8, i8, i8, i16, i16, i32, i8, i32, ptr, i32, i32, i32, i32, ptr, i32, [4 x ptr], i32, i32, i32, [10 x i32], i32, i32, i32, i32, i32, ptr, ptr, ptr, ptr, ptr, ptr, ptr, ptr, ptr, ptr, ptr }
%struct.my_cquantizer = type { %struct.jpeg_color_quantizer, ptr, i32, ptr, i32, [4 x i32], i32, [4 x ptr], [4 x ptr], i32 }
%struct.jpeg_color_quantizer = type { ptr, ptr, ptr, ptr }

; Function Attrs: nounwind uwtable
define internal void @quantize_ord_dither(ptr noundef %0, ptr noundef %1, ptr noundef %2, i32 noundef %3) #0 {
  %5 = alloca ptr, align 8
  %6 = alloca ptr, align 8
  %7 = alloca ptr, align 8
  %8 = alloca i32, align 4
  %9 = alloca ptr, align 8
  %10 = alloca ptr, align 8
  %11 = alloca ptr, align 8
  %12 = alloca ptr, align 8
  %13 = alloca ptr, align 8
  %14 = alloca i32, align 4
  %15 = alloca i32, align 4
  %16 = alloca i32, align 4
  %17 = alloca i32, align 4
  %18 = alloca i32, align 4
  %19 = alloca i32, align 4
  %20 = alloca i32, align 4
  store ptr %0, ptr %5, align 8
  store ptr %1, ptr %6, align 8
  store ptr %2, ptr %7, align 8
  store i32 %3, ptr %8, align 4
  %21 = load ptr, ptr %5, align 8
  %22 = getelementptr inbounds %struct.jpeg_decompress_struct, ptr %21, i32 0, i32 87
  %23 = load ptr, ptr %22, align 8
  store ptr %23, ptr %9, align 8
  %24 = load ptr, ptr %5, align 8
  %25 = getelementptr inbounds %struct.jpeg_decompress_struct, ptr %24, i32 0, i32 29
  %26 = load i32, ptr %25, align 8
  store i32 %26, ptr %16, align 4
  %27 = load ptr, ptr %5, align 8
  %28 = getelementptr inbounds %struct.jpeg_decompress_struct, ptr %27, i32 0, i32 27
  %29 = load i32, ptr %28, align 8
  store i32 %29, ptr %20, align 4
  store i32 0, ptr %18, align 4
  br label %30

30:                                               ; preds = %128, %4
  %31 = load i32, ptr %18, align 4
  %32 = load i32, ptr %8, align 4
  %33 = icmp slt i32 %31, %32
  br i1 %33, label %34, label %131

34:                                               ; preds = %30
  %35 = load ptr, ptr %7, align 8
  %36 = load i32, ptr %18, align 4
  %37 = sext i32 %36 to i64
  %38 = getelementptr inbounds ptr, ptr %35, i64 %37
  %39 = load ptr, ptr %38, align 8
  %40 = load i32, ptr %20, align 4
  %41 = zext i32 %40 to i64
  %42 = mul i64 %41, 1
  call void @jZeroFar(ptr noundef %39, i64 noundef %42)
  %43 = load ptr, ptr %9, align 8
  %44 = getelementptr inbounds %struct.my_cquantizer, ptr %43, i32 0, i32 6
  %45 = load i32, ptr %44, align 4
  store i32 %45, ptr %14, align 4
  store i32 0, ptr %17, align 4
  br label %46

46:                                               ; preds = %118, %34
  %47 = load i32, ptr %17, align 4
  %48 = load i32, ptr %16, align 4
  %49 = icmp slt i32 %47, %48
  br i1 %49, label %50, label %121

50:                                               ; preds = %46
  %51 = load ptr, ptr %6, align 8
  %52 = load i32, ptr %18, align 4
  %53 = sext i32 %52 to i64
  %54 = getelementptr inbounds ptr, ptr %51, i64 %53
  %55 = load ptr, ptr %54, align 8
  %56 = load i32, ptr %17, align 4
  %57 = sext i32 %56 to i64
  %58 = getelementptr inbounds i8, ptr %55, i64 %57
  store ptr %58, ptr %10, align 8
  %59 = load ptr, ptr %7, align 8
  %60 = load i32, ptr %18, align 4
  %61 = sext i32 %60 to i64
  %62 = getelementptr inbounds ptr, ptr %59, i64 %61
  %63 = load ptr, ptr %62, align 8
  store ptr %63, ptr %11, align 8
  %64 = load ptr, ptr %9, align 8
  %65 = getelementptr inbounds %struct.my_cquantizer, ptr %64, i32 0, i32 3
  %66 = load ptr, ptr %65, align 8
  %67 = load i32, ptr %17, align 4
  %68 = sext i32 %67 to i64
  %69 = getelementptr inbounds ptr, ptr %66, i64 %68
  %70 = load ptr, ptr %69, align 8
  store ptr %70, ptr %12, align 8
  %71 = load ptr, ptr %9, align 8
  %72 = getelementptr inbounds %struct.my_cquantizer, ptr %71, i32 0, i32 7
  %73 = load i32, ptr %17, align 4
  %74 = sext i32 %73 to i64
  %75 = getelementptr inbounds [4 x ptr], ptr %72, i64 0, i64 %74
  %76 = load ptr, ptr %75, align 8
  %77 = load i32, ptr %14, align 4
  %78 = sext i32 %77 to i64
  %79 = getelementptr inbounds [16 x i32], ptr %76, i64 %78
  %80 = getelementptr inbounds [16 x i32], ptr %79, i64 0, i64 0
  store ptr %80, ptr %13, align 8
  store i32 0, ptr %15, align 4
  %81 = load i32, ptr %20, align 4
  store i32 %81, ptr %19, align 4
  br label %82

82:                                               ; preds = %114, %50
  %83 = load i32, ptr %19, align 4
  %84 = icmp ugt i32 %83, 0
  br i1 %84, label %85, label %117

85:                                               ; preds = %82
  %86 = load ptr, ptr %12, align 8
  %87 = load ptr, ptr %10, align 8
  %88 = load i8, ptr %87, align 1
  %89 = zext i8 %88 to i32
  %90 = load ptr, ptr %13, align 8
  %91 = load i32, ptr %15, align 4
  %92 = sext i32 %91 to i64
  %93 = getelementptr inbounds i32, ptr %90, i64 %92
  %94 = load i32, ptr %93, align 4
  %95 = add nsw i32 %89, %94
  %96 = sext i32 %95 to i64
  %97 = getelementptr inbounds i8, ptr %86, i64 %96
  %98 = load i8, ptr %97, align 1
  %99 = zext i8 %98 to i32
  %100 = load ptr, ptr %11, align 8
  %101 = load i8, ptr %100, align 1
  %102 = zext i8 %101 to i32
  %103 = add nsw i32 %102, %99
  %104 = trunc i32 %103 to i8
  store i8 %104, ptr %100, align 1
  %105 = load i32, ptr %16, align 4
  %106 = load ptr, ptr %10, align 8
  %107 = sext i32 %105 to i64
  %108 = getelementptr inbounds i8, ptr %106, i64 %107
  store ptr %108, ptr %10, align 8
  %109 = load ptr, ptr %11, align 8
  %110 = getelementptr inbounds i8, ptr %109, i32 1
  store ptr %110, ptr %11, align 8
  %111 = load i32, ptr %15, align 4
  %112 = add nsw i32 %111, 1
  %113 = and i32 %112, 15
  store i32 %113, ptr %15, align 4
  br label %114

114:                                              ; preds = %85
  %115 = load i32, ptr %19, align 4
  %116 = add i32 %115, -1
  store i32 %116, ptr %19, align 4
  br label %82, !llvm.loop !24

117:                                              ; preds = %82
  br label %118

118:                                              ; preds = %117
  %119 = load i32, ptr %17, align 4
  %120 = add nsw i32 %119, 1
  store i32 %120, ptr %17, align 4
  br label %46, !llvm.loop !25

121:                                              ; preds = %46
  %122 = load i32, ptr %14, align 4
  %123 = add nsw i32 %122, 1
  %124 = and i32 %123, 15
  store i32 %124, ptr %14, align 4
  %125 = load i32, ptr %14, align 4
  %126 = load ptr, ptr %9, align 8
  %127 = getelementptr inbounds %struct.my_cquantizer, ptr %126, i32 0, i32 6
  store i32 %125, ptr %127, align 4
  br label %128

128:                                              ; preds = %121
  %129 = load i32, ptr %18, align 4
  %130 = add nsw i32 %129, 1
  store i32 %130, ptr %18, align 4
  br label %30, !llvm.loop !26

131:                                              ; preds = %30
  ret void
}