; Function Attrs: nounwind uwtable
define internal void @quantize_ord_dither(ptr nocapture noundef readonly %0, ptr nocapture noundef readonly %1, ptr nocapture noundef readonly %2, i32 noundef %3) #0 {
  %5 = getelementptr inbounds i8, ptr %0, i64 144
  %6 = load i32, ptr %5, align 8
  %.fr59 = freeze i32 %6
  %7 = getelementptr inbounds i8, ptr %0, i64 136
  %8 = load i32, ptr %7, align 8
  %.fr = freeze i32 %8
  %9 = icmp sgt i32 %3, 0
  br i1 %9, label %.lr.ph54, label %._crit_edge55

.lr.ph54:                                         ; preds = %4
  %10 = getelementptr inbounds i8, ptr %0, i64 624
  %11 = load ptr, ptr %10, align 8
  %12 = zext i32 %.fr to i64
  %13 = getelementptr inbounds i8, ptr %11, i64 76
  %14 = icmp sgt i32 %.fr59, 0
  %15 = getelementptr inbounds i8, ptr %11, i64 48
  %16 = getelementptr inbounds i8, ptr %11, i64 80
  %17 = sext i32 %.fr59 to i64
  br i1 %14, label %.lr.ph54.split.us, label %.lr.ph54.split.preheader

.lr.ph54.split.preheader:                         ; preds = %.lr.ph54
  %wide.trip.count = zext nneg i32 %3 to i64
  br label %.lr.ph54.split

.lr.ph54.split.us:                                ; preds = %.lr.ph54
  %.not43 = icmp eq i32 %.fr, 0
  %wide.trip.count76 = zext nneg i32 %3 to i64
  br i1 %.not43, label %.lr.ph50.us.us, label %.lr.ph50.us.preheader

.lr.ph50.us.preheader:                            ; preds = %.lr.ph54.split.us
  %wide.trip.count66 = zext nneg i32 %.fr59 to i64
  br label %.lr.ph50.us

.lr.ph50.us.us:                                   ; preds = %.lr.ph54.split.us, %.lr.ph50.us.us
  %indvars.iv73 = phi i64 [ %indvars.iv.next74, %.lr.ph50.us.us ], [ 0, %.lr.ph54.split.us ]
  %18 = getelementptr inbounds ptr, ptr %2, i64 %indvars.iv73
  %19 = load ptr, ptr %18, align 8
  tail call void @jZeroFar(ptr noundef %19, i64 noundef %12) #6
  %20 = load i32, ptr %13, align 4
  %21 = add nsw i32 %20, 1
  %22 = and i32 %21, 15
  store i32 %22, ptr %13, align 4
  %indvars.iv.next74 = add nuw nsw i64 %indvars.iv73, 1
  %exitcond77.not = icmp eq i64 %indvars.iv.next74, %wide.trip.count76
  br i1 %exitcond77.not, label %._crit_edge55, label %.lr.ph50.us.us, !llvm.loop !32

.lr.ph50.us:                                      ; preds = %.lr.ph50.us.preheader, %._crit_edge51.split.us57
  %indvars.iv68 = phi i64 [ 0, %.lr.ph50.us.preheader ], [ %indvars.iv.next69, %._crit_edge51.split.us57 ]
  %23 = getelementptr inbounds ptr, ptr %2, i64 %indvars.iv68
  %24 = load ptr, ptr %23, align 8
  tail call void @jZeroFar(ptr noundef %24, i64 noundef %12) #6
  %25 = load i32, ptr %13, align 4
  %26 = getelementptr inbounds ptr, ptr %1, i64 %indvars.iv68
  %27 = sext i32 %25 to i64
  br label %.lr.ph.us

.lr.ph.us:                                        ; preds = %.lr.ph50.us, %._crit_edge.us
  %indvars.iv63 = phi i64 [ 0, %.lr.ph50.us ], [ %indvars.iv.next64, %._crit_edge.us ]
  %28 = load ptr, ptr %26, align 8
  %29 = getelementptr inbounds i8, ptr %28, i64 %indvars.iv63
  %30 = load ptr, ptr %23, align 8
  %31 = load ptr, ptr %15, align 8
  %32 = getelementptr inbounds ptr, ptr %31, i64 %indvars.iv63
  %33 = load ptr, ptr %32, align 8
  %34 = getelementptr inbounds [4 x ptr], ptr %16, i64 0, i64 %indvars.iv63
  %35 = load ptr, ptr %34, align 8
  %36 = getelementptr inbounds [16 x i32], ptr %35, i64 %27
  br label %37

37:                                               ; preds = %37, %.lr.ph.us
  %.047.us = phi ptr [ %29, %.lr.ph.us ], [ %49, %37 ]
  %.03746.us = phi i32 [ %.fr, %.lr.ph.us ], [ %53, %37 ]
  %.04045.us = phi ptr [ %30, %.lr.ph.us ], [ %50, %37 ]
  %.04144.us = phi i32 [ 0, %.lr.ph.us ], [ %52, %37 ]
  %38 = load i8, ptr %.047.us, align 1
  %39 = zext i8 %38 to i32
  %40 = zext nneg i32 %.04144.us to i64
  %41 = getelementptr inbounds i32, ptr %36, i64 %40
  %42 = load i32, ptr %41, align 4
  %43 = add nsw i32 %42, %39
  %44 = sext i32 %43 to i64
  %45 = getelementptr inbounds i8, ptr %33, i64 %44
  %46 = load i8, ptr %45, align 1
  %47 = load i8, ptr %.04045.us, align 1
  %48 = add i8 %47, %46
  store i8 %48, ptr %.04045.us, align 1
  %49 = getelementptr inbounds i8, ptr %.047.us, i64 %17
  %50 = getelementptr inbounds i8, ptr %.04045.us, i64 1
  %51 = add nuw nsw i32 %.04144.us, 1
  %52 = and i32 %51, 15
  %53 = add i32 %.03746.us, -1
  %.not.us = icmp eq i32 %53, 0
  br i1 %.not.us, label %._crit_edge.us, label %37, !llvm.loop !33

._crit_edge.us:                                   ; preds = %37
  %indvars.iv.next64 = add nuw nsw i64 %indvars.iv63, 1
  %exitcond67.not = icmp eq i64 %indvars.iv.next64, %wide.trip.count66
  br i1 %exitcond67.not, label %._crit_edge51.split.us57, label %.lr.ph.us, !llvm.loop !34

._crit_edge51.split.us57:                         ; preds = %._crit_edge.us
  %54 = add nsw i32 %25, 1
  %55 = and i32 %54, 15
  store i32 %55, ptr %13, align 4
  %indvars.iv.next69 = add nuw nsw i64 %indvars.iv68, 1
  %exitcond72.not = icmp eq i64 %indvars.iv.next69, %wide.trip.count76
  br i1 %exitcond72.not, label %._crit_edge55, label %.lr.ph50.us, !llvm.loop !32

.lr.ph54.split:                                   ; preds = %.lr.ph54.split.preheader, %.lr.ph54.split
  %indvars.iv = phi i64 [ 0, %.lr.ph54.split.preheader ], [ %indvars.iv.next, %.lr.ph54.split ]
  %56 = getelementptr inbounds ptr, ptr %2, i64 %indvars.iv
  %57 = load ptr, ptr %56, align 8
  tail call void @jZeroFar(ptr noundef %57, i64 noundef %12) #6
  %58 = load i32, ptr %13, align 4
  %59 = add nsw i32 %58, 1
  %60 = and i32 %59, 15
  store i32 %60, ptr %13, align 4
  %indvars.iv.next = add nuw nsw i64 %indvars.iv, 1
  %exitcond.not = icmp eq i64 %indvars.iv.next, %wide.trip.count
  br i1 %exitcond.not, label %._crit_edge55, label %.lr.ph54.split, !llvm.loop !32

._crit_edge55:                                    ; preds = %.lr.ph54.split, %._crit_edge51.split.us57, %.lr.ph50.us.us, %4
  ret void
}